; Function Attrs: mustprogress uwtable
define void @_ZN7rocksdb16WritePreparedTxnC2EPNS_18WritePreparedTxnDBERKNS_12WriteOptionsERKNS_18TransactionOptionsE(ptr noundef nonnull align 8 dereferenceable(664) %0, ptr noundef %1, ptr noundef nonnull align 8 dereferenceable(25) %2, ptr noundef nonnull align 8 dereferenceable(58) %3) unnamed_addr #4 align 2 personality ptr @__gxx_personality_v0 {
  tail call void @_ZN7rocksdb22PessimisticTransactionC2EPNS_13TransactionDBERKNS_12WriteOptionsERKNS_18TransactionOptionsEb(ptr noundef nonnull align 8 dereferenceable(641) %0, ptr noundef %1, ptr noundef nonnull align 8 dereferenceable(25) %2, ptr noundef nonnull align 8 dereferenceable(58) %3, i1 noundef zeroext false)
  store ptr getelementptr inbounds nuw inrange(-16, 832) (i8, ptr @_ZTVN7rocksdb16WritePreparedTxnE, i64 16), ptr %0, align 8, !tbaa !18
  %5 = getelementptr inbounds nuw i8, ptr %0, i64 648
  store ptr %1, ptr %5, align 8, !tbaa !20
  %6 = getelementptr inbounds nuw i8, ptr %0, i64 656
  store i64 0, ptr %6, align 8, !tbaa !104
  invoke void @_ZN7rocksdb22PessimisticTransaction10InitializeERKNS_18TransactionOptionsE(ptr noundef nonnull align 8 dereferenceable(664) %0, ptr noundef nonnull align 8 dereferenceable(58) %3)
          to label %7 unwind label %8

7:                                                ; preds = %4
  store i64 0, ptr %6, align 8, !tbaa !104
  ret void

8:                                                ; preds = %4
  %9 = landingpad { ptr, i32 }
          cleanup
  tail call void @_ZN7rocksdb22PessimisticTransactionD2Ev(ptr noundef nonnull align 8 dereferenceable(641) %0) #26
  resume { ptr, i32 } %9
}